; Function Attrs: nounwind uwtable
define ptr @l___private_Lean_Server_FileWorker_0__Lean_Server_FileWorker_reportSnapshots_handleTasks___boxed(ptr noundef %0, ptr noundef %1, ptr noundef %2, ptr noundef %3, ptr noundef %4, ptr noundef %5) local_unnamed_addr #0 {
  %7 = tail call ptr @l___private_Lean_Server_FileWorker_0__Lean_Server_FileWorker_reportSnapshots_handleTasks(ptr noundef %0, ptr noundef %1, ptr noundef %2, ptr noundef %3, ptr noundef %4, ptr noundef %5)
  %8 = ptrtoint ptr %3 to i64
  %9 = and i64 %8, 1
  %.not = icmp eq i64 %9, 0
  br i1 %.not, label %10, label %lean_dec.exit9

10:                                               ; preds = %6
  %11 = load i32, ptr %3, align 4, !tbaa !10
  %12 = icmp sgt i32 %11, 1
  br i1 %12, label %13, label %15, !prof !13

13:                                               ; preds = %10
  %14 = add nsw i32 %11, -1
  store i32 %14, ptr %3, align 4, !tbaa !10
  br label %lean_dec.exit9

15:                                               ; preds = %10
  %.not.i = icmp eq i32 %11, 0
  br i1 %.not.i, label %lean_dec.exit9, label %16

16:                                               ; preds = %15
  tail call void @lean_dec_ref_cold(ptr noundef nonnull %3) #7
  br label %lean_dec.exit9

lean_dec.exit9:                                   ; preds = %16, %15, %13, %6
  %17 = ptrtoint ptr %2 to i64
  %18 = and i64 %17, 1
  %.not12 = icmp eq i64 %18, 0
  br i1 %.not12, label %19, label %lean_dec.exit

19:                                               ; preds = %lean_dec.exit9
  %20 = load i32, ptr %2, align 4, !tbaa !10
  %21 = icmp sgt i32 %20, 1
  br i1 %21, label %22, label %24, !prof !13

22:                                               ; preds = %19
  %23 = add nsw i32 %20, -1
  store i32 %23, ptr %2, align 4, !tbaa !10
  br label %lean_dec.exit

24:                                               ; preds = %19
  %.not.i10 = icmp eq i32 %20, 0
  br i1 %.not.i10, label %lean_dec.exit, label %25

25:                                               ; preds = %24
  tail call void @lean_dec_ref_cold(ptr noundef nonnull %2) #7
  br label %lean_dec.exit

lean_dec.exit:                                    ; preds = %25, %24, %22, %lean_dec.exit9
  ret ptr %7
}